; Function Attrs: mustprogress uwtable
define dso_local void @_Z9lua_xpushP9lua_StateS0_i(ptr noundef readonly captures(none) %0, ptr noundef %1, i32 noundef %2) local_unnamed_addr #3 {
  %4 = getelementptr inbounds nuw i8, ptr %1, i64 1
  %5 = load i8, ptr %4, align 1, !tbaa !21
  %6 = and i8 %5, 4
  %.not = icmp eq i8 %6, 0
  br i1 %.not, label %9, label %7

7:                                                ; preds = %3
  %8 = getelementptr inbounds nuw i8, ptr %1, i64 104
  tail call void @_Z16luaC_barrierbackP9lua_StateP8GCObjectPS2_(ptr noundef nonnull %1, ptr noundef nonnull %1, ptr noundef nonnull %8)
  br label %9

9:                                                ; preds = %7, %3
  %10 = icmp sgt i32 %2, 0
  br i1 %10, label %11, label %19

11:                                               ; preds = %9
  %12 = getelementptr inbounds nuw i8, ptr %0, i64 16
  %13 = load ptr, ptr %12, align 8, !tbaa !4
  %14 = zext nneg i32 %2 to i64
  %15 = getelementptr %struct.lua_TValue, ptr %13, i64 %14
  %16 = getelementptr i8, ptr %15, i64 -16
  %17 = getelementptr inbounds nuw i8, ptr %0, i64 8
  %18 = load ptr, ptr %17, align 8, !tbaa !19
  %.not.i = icmp ult ptr %16, %18
  %.luaO_nilobject_.i = select i1 %.not.i, ptr %16, ptr @luaO_nilobject_
  br label %_ZL10index2addrP9lua_Statei.exit

19:                                               ; preds = %9
  %20 = icmp sgt i32 %2, -10000
  br i1 %20, label %21, label %26

21:                                               ; preds = %19
  %22 = getelementptr inbounds nuw i8, ptr %0, i64 8
  %23 = load ptr, ptr %22, align 8, !tbaa !19
  %24 = sext i32 %2 to i64
  %25 = getelementptr inbounds %struct.lua_TValue, ptr %23, i64 %24
  br label %_ZL10index2addrP9lua_Statei.exit

26:                                               ; preds = %19
  %27 = tail call fastcc noundef ptr @_ZL11pseudo2addrP9lua_Statei(ptr noundef %0, i32 noundef %2)
  br label %_ZL10index2addrP9lua_Statei.exit

_ZL10index2addrP9lua_Statei.exit:                 ; preds = %11, %21, %26
  %.1.i = phi ptr [ %.luaO_nilobject_.i, %11 ], [ %25, %21 ], [ %27, %26 ]
  %28 = getelementptr inbounds nuw i8, ptr %1, i64 8
  %29 = load ptr, ptr %28, align 8, !tbaa !19
  tail call void @llvm.memcpy.p0.p0.i64(ptr noundef nonnull align 8 dereferenceable(16) %29, ptr noundef nonnull align 8 dereferenceable(16) %.1.i, i64 16, i1 false), !tbaa.struct !20
  %30 = load ptr, ptr %28, align 8, !tbaa !19
  %31 = getelementptr inbounds nuw i8, ptr %30, i64 16
  store ptr %31, ptr %28, align 8, !tbaa !19
  ret void
}